; Function Attrs: mustprogress nounwind uwtable
define dso_local void @_ZN4node8JSStreamC2EPNS_11EnvironmentEN2v85LocalINS3_6ObjectEEE(ptr noundef nonnull align 8 dereferenceable(120) %this, ptr noundef %env, ptr %obj.coerce) unnamed_addr #3 align 2 {
entry:
  tail call void @_ZN4node9AsyncWrapC2EPNS_11EnvironmentEN2v85LocalINS3_6ObjectEEENS0_12ProviderTypeEd(ptr noundef nonnull align 8 dereferenceable(56) %this, ptr noundef %env, ptr %obj.coerce, i32 noundef 19, double noundef -1.000000e+00) #14
  %0 = getelementptr inbounds i8, ptr %this, i64 56
  %listener_.i.i = getelementptr inbounds i8, ptr %this, i64 64
  %1 = getelementptr inbounds i8, ptr %this, i64 72
  tail call void @llvm.memset.p0.i64(ptr noundef nonnull align 8 dereferenceable(24) %1, i8 0, i64 16, i1 false)
  %env_.i = getelementptr inbounds i8, ptr %this, i64 88
  store ptr %env, ptr %env_.i, align 8
  %default_listener_.i = getelementptr inbounds i8, ptr %this, i64 96
  %stream_.i.i.i.i = getelementptr inbounds i8, ptr %this, i64 104
  store ptr getelementptr inbounds ({ [10 x ptr] }, ptr @_ZTVN4node22EmitToJSStreamListenerE, i64 0, i32 0, i64 2), ptr %default_listener_.i, align 8
  %previous_listener_.i.i = getelementptr inbounds i8, ptr %this, i64 112
  store ptr null, ptr %previous_listener_.i.i, align 8
  store ptr %0, ptr %stream_.i.i.i.i, align 8
  store ptr %default_listener_.i, ptr %listener_.i.i, align 8
  store ptr getelementptr inbounds ({ [27 x ptr], [20 x ptr] }, ptr @_ZTVN4node8JSStreamE, i64 0, i32 0, i64 2), ptr %this, align 8
  store ptr getelementptr inbounds ({ [27 x ptr], [20 x ptr] }, ptr @_ZTVN4node8JSStreamE, i64 0, i32 1, i64 2), ptr %0, align 8
  tail call void @_ZN4node10BaseObject8MakeWeakEv(ptr noundef nonnull align 8 dereferenceable(32) %this) #14
  tail call void @_ZN2v86Object32SetAlignedPointerInInternalFieldEiPv(ptr noundef nonnull align 1 dereferenceable(1) %obj.coerce, i32 noundef 2, ptr noundef nonnull %0) #14
  ret void
}